target datalayout = "e-m:e-p270:32:32-p271:32:32-p272:64:64-i64:64-i128:128-f80:128-n8:16:32:64-S128"
target triple = "x86_64-pc-linux-gnu"

%"class.icu_77::RegexMatcher" = type { %"class.icu_77::UObject", ptr, ptr, ptr, ptr, ptr, i64, i32, i64, i64, i64, i64, i64, i64, i64, i64, i8, i8, i8, i64, i64, i64, i64, i8, i8, ptr, ptr, ptr, [8 x i64], i32, i32, i32, i32, ptr, ptr, ptr, ptr, i8, i8, i32, ptr, ptr }
%"class.icu_77::UObject" = type { ptr }

; Function Attrs: mustprogress nounwind uwtable
define void @_ZN6icu_7712RegexMatcher19resetPreserveRegionEv(ptr noundef nonnull align 8 dereferenceable(336) %0) #0 align 2 {
  %2 = alloca ptr, align 8
  store ptr %0, ptr %2, align 8, !tbaa !23
  %3 = load ptr, ptr %2, align 8
  %4 = getelementptr inbounds nuw %"class.icu_77::RegexMatcher", ptr %3, i32 0, i32 19
  store i64 0, ptr %4, align 8, !tbaa !67
  %5 = getelementptr inbounds nuw %"class.icu_77::RegexMatcher", ptr %3, i32 0, i32 20
  store i64 0, ptr %5, align 8, !tbaa !68
  %6 = getelementptr inbounds nuw %"class.icu_77::RegexMatcher", ptr %3, i32 0, i32 21
  store i64 -1, ptr %6, align 8, !tbaa !69
  %7 = getelementptr inbounds nuw %"class.icu_77::RegexMatcher", ptr %3, i32 0, i32 22
  store i64 0, ptr %7, align 8, !tbaa !70
  %8 = getelementptr inbounds nuw %"class.icu_77::RegexMatcher", ptr %3, i32 0, i32 18
  store i8 0, ptr %8, align 2, !tbaa !66
  %9 = getelementptr inbounds nuw %"class.icu_77::RegexMatcher", ptr %3, i32 0, i32 23
  store i8 0, ptr %9, align 8, !tbaa !71
  %10 = getelementptr inbounds nuw %"class.icu_77::RegexMatcher", ptr %3, i32 0, i32 24
  store i8 0, ptr %10, align 1, !tbaa !72
  %11 = getelementptr inbounds nuw %"class.icu_77::RegexMatcher", ptr %3, i32 0, i32 30
  store i32 0, ptr %11, align 4, !tbaa !76
  %12 = getelementptr inbounds nuw %"class.icu_77::RegexMatcher", ptr %3, i32 0, i32 31
  store i32 10000, ptr %12, align 8, !tbaa !77
  ret void
}