; Function Attrs: mustprogress nofree norecurse nosync nounwind willreturn memory(argmem: write) uwtable
define void @_ZN6icu_7712RegexMatcher19resetPreserveRegionEv(ptr noundef nonnull writeonly align 8 captures(none) dereferenceable(336) initializes((130, 131), (136, 170), (268, 276)) %0) local_unnamed_addr #17 align 2 {
  %2 = getelementptr inbounds nuw i8, ptr %0, i64 136
  %3 = getelementptr inbounds nuw i8, ptr %0, i64 152
  tail call void @llvm.memset.p0.i64(ptr noundef nonnull align 8 dereferenceable(16) %2, i8 0, i64 16, i1 false)
  store i64 -1, ptr %3, align 8, !tbaa !30
  %4 = getelementptr inbounds nuw i8, ptr %0, i64 160
  store i64 0, ptr %4, align 8, !tbaa !31
  %5 = getelementptr inbounds nuw i8, ptr %0, i64 130
  store i8 0, ptr %5, align 2, !tbaa !29
  %6 = getelementptr inbounds nuw i8, ptr %0, i64 168
  store i8 0, ptr %6, align 8, !tbaa !32
  %7 = getelementptr inbounds nuw i8, ptr %0, i64 169
  store i8 0, ptr %7, align 1, !tbaa !33
  %8 = getelementptr inbounds nuw i8, ptr %0, i64 268
  store i32 0, ptr %8, align 4, !tbaa !35
  %9 = getelementptr inbounds nuw i8, ptr %0, i64 272
  store i32 10000, ptr %9, align 8, !tbaa !36
  ret void
}